; Function Attrs: mustprogress nounwind willreturn uwtable
define noalias noundef ptr @av_realloc_array(ptr noundef captures(none) %0, i64 noundef %1, i64 noundef %2) local_unnamed_addr #4 {
  %4 = tail call { i64, i1 } @llvm.umul.with.overflow.i64(i64 %1, i64 %2)
  %5 = extractvalue { i64, i1 } %4, 1
  br i1 %5, label %av_realloc.exit, label %6

6:                                                ; preds = %3
  %7 = extractvalue { i64, i1 } %4, 0
  %8 = load atomic i64, ptr @max_alloc_size monotonic, align 8
  %9 = icmp ugt i64 %7, %8
  br i1 %9, label %av_realloc.exit, label %10

10:                                               ; preds = %6
  %11 = tail call i64 @llvm.umax.i64(i64 %7, i64 1)
  %12 = tail call ptr @realloc(ptr noundef %0, i64 noundef %11) #22
  br label %av_realloc.exit

av_realloc.exit:                                  ; preds = %3, %10, %6
  %.0 = phi ptr [ %12, %10 ], [ null, %6 ], [ null, %3 ]
  ret ptr %.0
}